; Function Attrs: nounwind uwtable
define internal fastcc void @PrintOutput(ptr noundef %0, double noundef %1, ptr noundef %2) unnamed_addr #0 {
  %4 = alloca double, align 8
  %5 = alloca i64, align 8
  %6 = alloca i64, align 8
  %7 = alloca i64, align 8
  %8 = alloca i64, align 8
  %9 = alloca i64, align 8
  %10 = alloca i64, align 8
  %11 = alloca i64, align 8
  %12 = alloca i64, align 8
  %13 = alloca i32, align 4
  call void @llvm.lifetime.start.p0(i64 8, ptr nonnull %4) #10
  call void @llvm.lifetime.start.p0(i64 8, ptr nonnull %5) #10
  call void @llvm.lifetime.start.p0(i64 8, ptr nonnull %6) #10
  call void @llvm.lifetime.start.p0(i64 8, ptr nonnull %7) #10
  call void @llvm.lifetime.start.p0(i64 8, ptr nonnull %8) #10
  call void @llvm.lifetime.start.p0(i64 8, ptr nonnull %9) #10
  call void @llvm.lifetime.start.p0(i64 8, ptr nonnull %10) #10
  call void @llvm.lifetime.start.p0(i64 8, ptr nonnull %11) #10
  call void @llvm.lifetime.start.p0(i64 8, ptr nonnull %12) #10
  call void @llvm.lifetime.start.p0(i64 4, ptr nonnull %13) #10
  %14 = tail call double @N_VMaxNorm(ptr noundef %2) #10
  %15 = call i32 @IDAGetLastOrder(ptr noundef %0, ptr noundef nonnull %13) #10
  %16 = icmp slt i32 %15, 0
  br i1 %16, label %17, label %check_retval.exit

17:                                               ; preds = %3
  %18 = load ptr, ptr @stderr, align 8, !tbaa !4
  %19 = call i32 (ptr, ptr, ...) @fprintf(ptr noundef %18, ptr noundef nonnull @.str.47, ptr noundef nonnull @.str.35, i32 noundef %15) #11
  br label %check_retval.exit

check_retval.exit:                                ; preds = %3, %17
  %20 = call i32 @IDAGetNumSteps(ptr noundef %0, ptr noundef nonnull %5) #10
  %21 = icmp slt i32 %20, 0
  br i1 %21, label %22, label %check_retval.exit14

22:                                               ; preds = %check_retval.exit
  %23 = load ptr, ptr @stderr, align 8, !tbaa !4
  %24 = call i32 (ptr, ptr, ...) @fprintf(ptr noundef %23, ptr noundef nonnull @.str.47, ptr noundef nonnull @.str.36, i32 noundef %20) #11
  br label %check_retval.exit14

check_retval.exit14:                              ; preds = %check_retval.exit, %22
  %25 = call i32 @IDAGetNumNonlinSolvIters(ptr noundef %0, ptr noundef nonnull %6) #10
  %26 = icmp slt i32 %25, 0
  br i1 %26, label %27, label %check_retval.exit16

27:                                               ; preds = %check_retval.exit14
  %28 = load ptr, ptr @stderr, align 8, !tbaa !4
  %29 = call i32 (ptr, ptr, ...) @fprintf(ptr noundef %28, ptr noundef nonnull @.str.47, ptr noundef nonnull @.str.37, i32 noundef %25) #11
  br label %check_retval.exit16

check_retval.exit16:                              ; preds = %check_retval.exit14, %27
  %30 = call i32 @IDAGetNumResEvals(ptr noundef %0, ptr noundef nonnull %8) #10
  %31 = icmp slt i32 %30, 0
  br i1 %31, label %32, label %check_retval.exit18

32:                                               ; preds = %check_retval.exit16
  %33 = load ptr, ptr @stderr, align 8, !tbaa !4
  %34 = call i32 (ptr, ptr, ...) @fprintf(ptr noundef %33, ptr noundef nonnull @.str.47, ptr noundef nonnull @.str.38, i32 noundef %30) #11
  br label %check_retval.exit18

check_retval.exit18:                              ; preds = %check_retval.exit16, %32
  %35 = call i32 @IDAGetLastStep(ptr noundef %0, ptr noundef nonnull %4) #10
  %36 = icmp slt i32 %35, 0
  br i1 %36, label %37, label %check_retval.exit20

37:                                               ; preds = %check_retval.exit18
  %38 = load ptr, ptr @stderr, align 8, !tbaa !4
  %39 = call i32 (ptr, ptr, ...) @fprintf(ptr noundef %38, ptr noundef nonnull @.str.47, ptr noundef nonnull @.str.39, i32 noundef %35) #11
  br label %check_retval.exit20

check_retval.exit20:                              ; preds = %check_retval.exit18, %37
  %40 = call i32 @IDAGetNumJtimesEvals(ptr noundef %0, ptr noundef nonnull %7) #10
  %41 = icmp slt i32 %40, 0
  br i1 %41, label %42, label %check_retval.exit22

42:                                               ; preds = %check_retval.exit20
  %43 = load ptr, ptr @stderr, align 8, !tbaa !4
  %44 = call i32 (ptr, ptr, ...) @fprintf(ptr noundef %43, ptr noundef nonnull @.str.47, ptr noundef nonnull @.str.40, i32 noundef %40) #11
  br label %check_retval.exit22

check_retval.exit22:                              ; preds = %check_retval.exit20, %42
  %45 = call i32 @IDAGetNumLinIters(ptr noundef %0, ptr noundef nonnull %10) #10
  %46 = icmp slt i32 %45, 0
  br i1 %46, label %47, label %check_retval.exit24

47:                                               ; preds = %check_retval.exit22
  %48 = load ptr, ptr @stderr, align 8, !tbaa !4
  %49 = call i32 (ptr, ptr, ...) @fprintf(ptr noundef %48, ptr noundef nonnull @.str.47, ptr noundef nonnull @.str.41, i32 noundef %45) #11
  br label %check_retval.exit24

check_retval.exit24:                              ; preds = %check_retval.exit22, %47
  %50 = call i32 @IDAGetNumLinResEvals(ptr noundef %0, ptr noundef nonnull %9) #10
  %51 = icmp slt i32 %50, 0
  br i1 %51, label %52, label %check_retval.exit26

52:                                               ; preds = %check_retval.exit24
  %53 = load ptr, ptr @stderr, align 8, !tbaa !4
  %54 = call i32 (ptr, ptr, ...) @fprintf(ptr noundef %53, ptr noundef nonnull @.str.47, ptr noundef nonnull @.str.42, i32 noundef %50) #11
  br label %check_retval.exit26

check_retval.exit26:                              ; preds = %check_retval.exit24, %52
  %55 = call i32 @IDAGetNumPrecEvals(ptr noundef %0, ptr noundef nonnull %11) #10
  %56 = icmp slt i32 %55, 0
  br i1 %56, label %57, label %check_retval.exit28

57:                                               ; preds = %check_retval.exit26
  %58 = load ptr, ptr @stderr, align 8, !tbaa !4
  %59 = call i32 (ptr, ptr, ...) @fprintf(ptr noundef %58, ptr noundef nonnull @.str.47, ptr noundef nonnull @.str.43, i32 noundef %55) #11
  br label %check_retval.exit28

check_retval.exit28:                              ; preds = %check_retval.exit26, %57
  %60 = call i32 @IDAGetNumPrecSolves(ptr noundef %0, ptr noundef nonnull %12) #10
  %61 = icmp slt i32 %60, 0
  br i1 %61, label %62, label %check_retval.exit30

62:                                               ; preds = %check_retval.exit28
  %63 = load ptr, ptr @stderr, align 8, !tbaa !4
  %64 = call i32 (ptr, ptr, ...) @fprintf(ptr noundef %63, ptr noundef nonnull @.str.47, ptr noundef nonnull @.str.44, i32 noundef %60) #11
  br label %check_retval.exit30

check_retval.exit30:                              ; preds = %check_retval.exit28, %62
  %65 = load i32, ptr %13, align 4, !tbaa !22
  %66 = load i64, ptr %5, align 8, !tbaa !21
  %67 = load i64, ptr %6, align 8, !tbaa !21
  %68 = load i64, ptr %7, align 8, !tbaa !21
  %69 = load i64, ptr %8, align 8, !tbaa !21
  %70 = load i64, ptr %9, align 8, !tbaa !21
  %71 = load double, ptr %4, align 8, !tbaa !20
  %72 = load i64, ptr %11, align 8, !tbaa !21
  %73 = load i64, ptr %12, align 8, !tbaa !21
  %74 = call i32 (ptr, ...) @printf(ptr noundef nonnull dereferenceable(1) @.str.45, double noundef %1, double noundef %14, i32 noundef %65, i64 noundef %66, i64 noundef %67, i64 noundef %68, i64 noundef %69, i64 noundef %70, double noundef %71, i64 noundef %72, i64 noundef %73)
  call void @llvm.lifetime.end.p0(i64 4, ptr nonnull %13) #10
  call void @llvm.lifetime.end.p0(i64 8, ptr nonnull %12) #10
  call void @llvm.lifetime.end.p0(i64 8, ptr nonnull %11) #10
  call void @llvm.lifetime.end.p0(i64 8, ptr nonnull %10) #10
  call void @llvm.lifetime.end.p0(i64 8, ptr nonnull %9) #10
  call void @llvm.lifetime.end.p0(i64 8, ptr nonnull %8) #10
  call void @llvm.lifetime.end.p0(i64 8, ptr nonnull %7) #10
  call void @llvm.lifetime.end.p0(i64 8, ptr nonnull %6) #10
  call void @llvm.lifetime.end.p0(i64 8, ptr nonnull %5) #10
  call void @llvm.lifetime.end.p0(i64 8, ptr nonnull %4) #10
  ret void
}